target datalayout = "e-m:e-p270:32:32-p271:32:32-p272:64:64-i64:64-i128:128-f80:128-n8:16:32:64-S128"
target triple = "x86_64-pc-linux-gnu"

%"class.open3d::core::Dtype" = type { i32, i64, [16 x i8] }
%class.anon = type { ptr, ptr, ptr, ptr, ptr, ptr, ptr }
%class.anon.0 = type { ptr, ptr, ptr, ptr, ptr, ptr }
%class.anon.1 = type { ptr, ptr, ptr, ptr, ptr, ptr }

@_ZN6open3d4core7Float32E = external global %"class.open3d::core::Dtype", align 8
@_ZN6open3d4core7Float64E = external global %"class.open3d::core::Dtype", align 8
@.str = private unnamed_addr constant [128 x i8] c"generated/home/dtcxzyw/WorkSpace/Projects/compilers/llvm-opt-benchmark/bench/open3d/Open3D/cpp/open3d/core/linalg/MatmulCPU.cpp\00", align 1
@"__PRETTY_FUNCTION__._ZZN6open3d4core9MatmulCPUEPvS1_S1_lllNS0_5DtypeEENK3$_0clEv" = private unnamed_addr constant [126 x i8] c"auto open3d::core::MatmulCPU(void *, void *, void *, int64_t, int64_t, int64_t, Dtype)::(anonymous class)::operator()() const\00", align 1
@.str.1 = private unnamed_addr constant [23 x i8] c"Unsupported data type.\00", align 1

; Function Attrs: inlinehint mustprogress nounwind ssp uwtable
define linkonce_odr hidden void @_ZN6open3d4core8gemm_cpuIdEEv12CBLAS_LAYOUT15CBLAS_TRANSPOSES3_xxxT_PKS4_xS6_xS4_PS4_x(i32 noundef %0, i32 noundef %1, i32 noundef %2, i64 noundef %3, i64 noundef %4, i64 noundef %5, double noundef %6, ptr noundef %7, i64 noundef %8, ptr noundef %9, i64 noundef %10, double noundef %11, ptr noundef %12, i64 noundef %13) #5 comdat {
  %15 = alloca i32, align 4
  %16 = alloca i32, align 4
  %17 = alloca i32, align 4
  %18 = alloca i64, align 8
  %19 = alloca i64, align 8
  %20 = alloca i64, align 8
  %21 = alloca double, align 8
  %22 = alloca ptr, align 8
  %23 = alloca i64, align 8
  %24 = alloca ptr, align 8
  %25 = alloca i64, align 8
  %26 = alloca double, align 8
  %27 = alloca ptr, align 8
  %28 = alloca i64, align 8
  store i32 %0, ptr %15, align 4, !tbaa !46
  store i32 %1, ptr %16, align 4, !tbaa !48
  store i32 %2, ptr %17, align 4, !tbaa !48
  store i64 %3, ptr %18, align 8, !tbaa !50
  store i64 %4, ptr %19, align 8, !tbaa !50
  store i64 %5, ptr %20, align 8, !tbaa !50
  store double %6, ptr %21, align 8, !tbaa !33
  store ptr %7, ptr %22, align 8, !tbaa !54
  store i64 %8, ptr %23, align 8, !tbaa !50
  store ptr %9, ptr %24, align 8, !tbaa !54
  store i64 %10, ptr %25, align 8, !tbaa !50
  store double %11, ptr %26, align 8, !tbaa !33
  store ptr %12, ptr %27, align 8, !tbaa !54
  store i64 %13, ptr %28, align 8, !tbaa !50
  %29 = load i32, ptr %15, align 4, !tbaa !46
  %30 = load i32, ptr %16, align 4, !tbaa !48
  %31 = load i32, ptr %17, align 4, !tbaa !48
  %32 = load i64, ptr %18, align 8, !tbaa !50
  %33 = load i64, ptr %19, align 8, !tbaa !50
  %34 = load i64, ptr %20, align 8, !tbaa !50
  %35 = load double, ptr %21, align 8, !tbaa !33
  %36 = load ptr, ptr %22, align 8, !tbaa !54
  %37 = load i64, ptr %23, align 8, !tbaa !50
  %38 = load ptr, ptr %24, align 8, !tbaa !54
  %39 = load i64, ptr %25, align 8, !tbaa !50
  %40 = load double, ptr %26, align 8, !tbaa !33
  %41 = load ptr, ptr %27, align 8, !tbaa !54
  %42 = load i64, ptr %28, align 8, !tbaa !50
  call void @cblas_dgemm(i32 noundef %29, i32 noundef %30, i32 noundef %31, i64 noundef %32, i64 noundef %33, i64 noundef %34, double noundef %35, ptr noundef %36, i64 noundef %37, ptr noundef %38, i64 noundef %39, double noundef %40, ptr noundef %41, i64 noundef %42) #15
  ret void
}

; Function Attrs: inlinehint mustprogress nounwind ssp uwtable
define linkonce_odr hidden void @_ZN6open3d4core8gemm_cpuIfEEv12CBLAS_LAYOUT15CBLAS_TRANSPOSES3_xxxT_PKS4_xS6_xS4_PS4_x(i32 noundef %0, i32 noundef %1, i32 noundef %2, i64 noundef %3, i64 noundef %4, i64 noundef %5, float noundef %6, ptr noundef %7, i64 noundef %8, ptr noundef %9, i64 noundef %10, float noundef %11, ptr noundef %12, i64 noundef %13) #5 comdat {
  %15 = alloca i32, align 4
  %16 = alloca i32, align 4
  %17 = alloca i32, align 4
  %18 = alloca i64, align 8
  %19 = alloca i64, align 8
  %20 = alloca i64, align 8
  %21 = alloca float, align 4
  %22 = alloca ptr, align 8
  %23 = alloca i64, align 8
  %24 = alloca ptr, align 8
  %25 = alloca i64, align 8
  %26 = alloca float, align 4
  %27 = alloca ptr, align 8
  %28 = alloca i64, align 8
  store i32 %0, ptr %15, align 4, !tbaa !46
  store i32 %1, ptr %16, align 4, !tbaa !48
  store i32 %2, ptr %17, align 4, !tbaa !48
  store i64 %3, ptr %18, align 8, !tbaa !50
  store i64 %4, ptr %19, align 8, !tbaa !50
  store i64 %5, ptr %20, align 8, !tbaa !50
  store float %6, ptr %21, align 4, !tbaa !24
  store ptr %7, ptr %22, align 8, !tbaa !52
  store i64 %8, ptr %23, align 8, !tbaa !50
  store ptr %9, ptr %24, align 8, !tbaa !52
  store i64 %10, ptr %25, align 8, !tbaa !50
  store float %11, ptr %26, align 4, !tbaa !24
  store ptr %12, ptr %27, align 8, !tbaa !52
  store i64 %13, ptr %28, align 8, !tbaa !50
  %29 = load i32, ptr %15, align 4, !tbaa !46
  %30 = load i32, ptr %16, align 4, !tbaa !48
  %31 = load i32, ptr %17, align 4, !tbaa !48
  %32 = load i64, ptr %18, align 8, !tbaa !50
  %33 = load i64, ptr %19, align 8, !tbaa !50
  %34 = load i64, ptr %20, align 8, !tbaa !50
  %35 = load float, ptr %21, align 4, !tbaa !24
  %36 = load ptr, ptr %22, align 8, !tbaa !52
  %37 = load i64, ptr %23, align 8, !tbaa !50
  %38 = load ptr, ptr %24, align 8, !tbaa !52
  %39 = load i64, ptr %25, align 8, !tbaa !50
  %40 = load float, ptr %26, align 4, !tbaa !24
  %41 = load ptr, ptr %27, align 8, !tbaa !52
  %42 = load i64, ptr %28, align 8, !tbaa !50
  call void @cblas_sgemm(i32 noundef %29, i32 noundef %30, i32 noundef %31, i64 noundef %32, i64 noundef %33, i64 noundef %34, float noundef %35, ptr noundef %36, i64 noundef %37, ptr noundef %38, i64 noundef %39, float noundef %40, ptr noundef %41, i64 noundef %42) #15
  ret void
}

; Function Attrs: inlinehint mustprogress ssp uwtable
define internal void @"_ZZZN6open3d4core9MatmulCPUEPvS1_S1_lllNS0_5DtypeEENK3$_0clEvENKUlvE0_clEv"(ptr noundef nonnull align 8 dereferenceable(48) %0) #2 align 2 {
  %2 = alloca ptr, align 8
  %3 = alloca double, align 8
  %4 = alloca double, align 8
  store ptr %0, ptr %2, align 8, !tbaa !4
  %5 = load ptr, ptr %2, align 8
  call void @llvm.lifetime.start.p0(i64 8, ptr %3) #15
  store double 1.000000e+00, ptr %3, align 8, !tbaa !33
  call void @llvm.lifetime.start.p0(i64 8, ptr %4) #15
  store double 0.000000e+00, ptr %4, align 8, !tbaa !33
  %6 = getelementptr inbounds nuw %class.anon.1, ptr %5, i32 0, i32 0
  %7 = load ptr, ptr %6, align 8, !tbaa !35
  %8 = load i64, ptr %7, align 8, !tbaa !8
  %9 = getelementptr inbounds nuw %class.anon.1, ptr %5, i32 0, i32 1
  %10 = load ptr, ptr %9, align 8, !tbaa !37
  %11 = load i64, ptr %10, align 8, !tbaa !8
  %12 = getelementptr inbounds nuw %class.anon.1, ptr %5, i32 0, i32 2
  %13 = load ptr, ptr %12, align 8, !tbaa !38
  %14 = load i64, ptr %13, align 8, !tbaa !8
  %15 = load double, ptr %3, align 8, !tbaa !33
  %16 = getelementptr inbounds nuw %class.anon.1, ptr %5, i32 0, i32 3
  %17 = load ptr, ptr %16, align 8, !tbaa !39
  %18 = load ptr, ptr %17, align 8, !tbaa !4
  %19 = getelementptr inbounds nuw %class.anon.1, ptr %5, i32 0, i32 0
  %20 = load ptr, ptr %19, align 8, !tbaa !35
  %21 = load i64, ptr %20, align 8, !tbaa !8
  %22 = getelementptr inbounds nuw %class.anon.1, ptr %5, i32 0, i32 4
  %23 = load ptr, ptr %22, align 8, !tbaa !40
  %24 = load ptr, ptr %23, align 8, !tbaa !4
  %25 = getelementptr inbounds nuw %class.anon.1, ptr %5, i32 0, i32 2
  %26 = load ptr, ptr %25, align 8, !tbaa !38
  %27 = load i64, ptr %26, align 8, !tbaa !8
  %28 = load double, ptr %4, align 8, !tbaa !33
  %29 = getelementptr inbounds nuw %class.anon.1, ptr %5, i32 0, i32 5
  %30 = load ptr, ptr %29, align 8, !tbaa !41
  %31 = load ptr, ptr %30, align 8, !tbaa !4
  %32 = getelementptr inbounds nuw %class.anon.1, ptr %5, i32 0, i32 0
  %33 = load ptr, ptr %32, align 8, !tbaa !35
  %34 = load i64, ptr %33, align 8, !tbaa !8
  call void @_ZN6open3d4core8gemm_cpuIdEEv12CBLAS_LAYOUT15CBLAS_TRANSPOSES3_xxxT_PKS4_xS6_xS4_PS4_x(i32 noundef 102, i32 noundef 111, i32 noundef 111, i64 noundef %8, i64 noundef %11, i64 noundef %14, double noundef %15, ptr noundef %18, i64 noundef %21, ptr noundef %24, i64 noundef %27, double noundef %28, ptr noundef %31, i64 noundef %34)
  call void @llvm.lifetime.end.p0(i64 8, ptr %4) #15
  call void @llvm.lifetime.end.p0(i64 8, ptr %3) #15
  ret void
}

; Function Attrs: inlinehint mustprogress ssp uwtable
define internal void @"_ZZZN6open3d4core9MatmulCPUEPvS1_S1_lllNS0_5DtypeEENK3$_0clEvENKUlvE_clEv"(ptr noundef nonnull align 8 dereferenceable(48) %0) #2 align 2 {
  %2 = alloca ptr, align 8
  %3 = alloca float, align 4
  %4 = alloca float, align 4
  store ptr %0, ptr %2, align 8, !tbaa !4
  %5 = load ptr, ptr %2, align 8
  call void @llvm.lifetime.start.p0(i64 4, ptr %3) #15
  store float 1.000000e+00, ptr %3, align 4, !tbaa !24
  call void @llvm.lifetime.start.p0(i64 4, ptr %4) #15
  store float 0.000000e+00, ptr %4, align 4, !tbaa !24
  %6 = getelementptr inbounds nuw %class.anon.0, ptr %5, i32 0, i32 0
  %7 = load ptr, ptr %6, align 8, !tbaa !26
  %8 = load i64, ptr %7, align 8, !tbaa !8
  %9 = getelementptr inbounds nuw %class.anon.0, ptr %5, i32 0, i32 1
  %10 = load ptr, ptr %9, align 8, !tbaa !28
  %11 = load i64, ptr %10, align 8, !tbaa !8
  %12 = getelementptr inbounds nuw %class.anon.0, ptr %5, i32 0, i32 2
  %13 = load ptr, ptr %12, align 8, !tbaa !29
  %14 = load i64, ptr %13, align 8, !tbaa !8
  %15 = load float, ptr %3, align 4, !tbaa !24
  %16 = getelementptr inbounds nuw %class.anon.0, ptr %5, i32 0, i32 3
  %17 = load ptr, ptr %16, align 8, !tbaa !30
  %18 = load ptr, ptr %17, align 8, !tbaa !4
  %19 = getelementptr inbounds nuw %class.anon.0, ptr %5, i32 0, i32 0
  %20 = load ptr, ptr %19, align 8, !tbaa !26
  %21 = load i64, ptr %20, align 8, !tbaa !8
  %22 = getelementptr inbounds nuw %class.anon.0, ptr %5, i32 0, i32 4
  %23 = load ptr, ptr %22, align 8, !tbaa !31
  %24 = load ptr, ptr %23, align 8, !tbaa !4
  %25 = getelementptr inbounds nuw %class.anon.0, ptr %5, i32 0, i32 2
  %26 = load ptr, ptr %25, align 8, !tbaa !29
  %27 = load i64, ptr %26, align 8, !tbaa !8
  %28 = load float, ptr %4, align 4, !tbaa !24
  %29 = getelementptr inbounds nuw %class.anon.0, ptr %5, i32 0, i32 5
  %30 = load ptr, ptr %29, align 8, !tbaa !32
  %31 = load ptr, ptr %30, align 8, !tbaa !4
  %32 = getelementptr inbounds nuw %class.anon.0, ptr %5, i32 0, i32 0
  %33 = load ptr, ptr %32, align 8, !tbaa !26
  %34 = load i64, ptr %33, align 8, !tbaa !8
  call void @_ZN6open3d4core8gemm_cpuIfEEv12CBLAS_LAYOUT15CBLAS_TRANSPOSES3_xxxT_PKS4_xS6_xS4_PS4_x(i32 noundef 102, i32 noundef 111, i32 noundef 111, i64 noundef %8, i64 noundef %11, i64 noundef %14, float noundef %15, ptr noundef %18, i64 noundef %21, ptr noundef %24, i64 noundef %27, float noundef %28, ptr noundef %31, i64 noundef %34)
  call void @llvm.lifetime.end.p0(i64 4, ptr %4) #15
  call void @llvm.lifetime.end.p0(i64 4, ptr %3) #15
  ret void
}

; Function Attrs: inlinehint mustprogress ssp uwtable
define internal void @"_ZZN6open3d4core9MatmulCPUEPvS1_S1_lllNS0_5DtypeEENK3$_0clEv"(ptr noundef nonnull align 8 dereferenceable(56) %0) #2 align 2 {
  %2 = alloca ptr, align 8
  %3 = alloca %class.anon.0, align 8
  %4 = alloca %class.anon.1, align 8
  store ptr %0, ptr %2, align 8, !tbaa !4
  %5 = load ptr, ptr %2, align 8
  %6 = getelementptr inbounds nuw %class.anon, ptr %5, i32 0, i32 0
  %7 = load ptr, ptr %6, align 8, !tbaa !16
  %8 = call noundef zeroext i1 @_ZNK6open3d4core5DtypeeqERKS1_(ptr noundef nonnull align 8 dereferenceable(32) %7, ptr noundef nonnull align 8 dereferenceable(32) @_ZN6open3d4core7Float32E)
  br i1 %8, label %9, label %28

9:                                                ; preds = %1
  call void @llvm.lifetime.start.p0(i64 48, ptr %3) #15
  %10 = getelementptr inbounds nuw %class.anon.0, ptr %3, i32 0, i32 0
  %11 = getelementptr inbounds nuw %class.anon, ptr %5, i32 0, i32 1
  %12 = load ptr, ptr %11, align 8, !tbaa !18
  store ptr %12, ptr %10, align 8, !tbaa !12
  %13 = getelementptr inbounds nuw %class.anon.0, ptr %3, i32 0, i32 1
  %14 = getelementptr inbounds nuw %class.anon, ptr %5, i32 0, i32 2
  %15 = load ptr, ptr %14, align 8, !tbaa !19
  store ptr %15, ptr %13, align 8, !tbaa !12
  %16 = getelementptr inbounds nuw %class.anon.0, ptr %3, i32 0, i32 2
  %17 = getelementptr inbounds nuw %class.anon, ptr %5, i32 0, i32 3
  %18 = load ptr, ptr %17, align 8, !tbaa !20
  store ptr %18, ptr %16, align 8, !tbaa !12
  %19 = getelementptr inbounds nuw %class.anon.0, ptr %3, i32 0, i32 3
  %20 = getelementptr inbounds nuw %class.anon, ptr %5, i32 0, i32 4
  %21 = load ptr, ptr %20, align 8, !tbaa !21
  store ptr %21, ptr %19, align 8, !tbaa !14
  %22 = getelementptr inbounds nuw %class.anon.0, ptr %3, i32 0, i32 4
  %23 = getelementptr inbounds nuw %class.anon, ptr %5, i32 0, i32 5
  %24 = load ptr, ptr %23, align 8, !tbaa !22
  store ptr %24, ptr %22, align 8, !tbaa !14
  %25 = getelementptr inbounds nuw %class.anon.0, ptr %3, i32 0, i32 5
  %26 = getelementptr inbounds nuw %class.anon, ptr %5, i32 0, i32 6
  %27 = load ptr, ptr %26, align 8, !tbaa !23
  store ptr %27, ptr %25, align 8, !tbaa !14
  call void @"_ZZZN6open3d4core9MatmulCPUEPvS1_S1_lllNS0_5DtypeEENK3$_0clEvENKUlvE_clEv"(ptr noundef nonnull align 8 dereferenceable(48) %3)
  call void @llvm.lifetime.end.p0(i64 48, ptr %3) #15
  br label %52

28:                                               ; preds = %1
  %29 = getelementptr inbounds nuw %class.anon, ptr %5, i32 0, i32 0
  %30 = load ptr, ptr %29, align 8, !tbaa !16
  %31 = call noundef zeroext i1 @_ZNK6open3d4core5DtypeeqERKS1_(ptr noundef nonnull align 8 dereferenceable(32) %30, ptr noundef nonnull align 8 dereferenceable(32) @_ZN6open3d4core7Float64E)
  br i1 %31, label %32, label %51

32:                                               ; preds = %28
  call void @llvm.lifetime.start.p0(i64 48, ptr %4) #15
  %33 = getelementptr inbounds nuw %class.anon.1, ptr %4, i32 0, i32 0
  %34 = getelementptr inbounds nuw %class.anon, ptr %5, i32 0, i32 1
  %35 = load ptr, ptr %34, align 8, !tbaa !18
  store ptr %35, ptr %33, align 8, !tbaa !12
  %36 = getelementptr inbounds nuw %class.anon.1, ptr %4, i32 0, i32 1
  %37 = getelementptr inbounds nuw %class.anon, ptr %5, i32 0, i32 2
  %38 = load ptr, ptr %37, align 8, !tbaa !19
  store ptr %38, ptr %36, align 8, !tbaa !12
  %39 = getelementptr inbounds nuw %class.anon.1, ptr %4, i32 0, i32 2
  %40 = getelementptr inbounds nuw %class.anon, ptr %5, i32 0, i32 3
  %41 = load ptr, ptr %40, align 8, !tbaa !20
  store ptr %41, ptr %39, align 8, !tbaa !12
  %42 = getelementptr inbounds nuw %class.anon.1, ptr %4, i32 0, i32 3
  %43 = getelementptr inbounds nuw %class.anon, ptr %5, i32 0, i32 4
  %44 = load ptr, ptr %43, align 8, !tbaa !21
  store ptr %44, ptr %42, align 8, !tbaa !14
  %45 = getelementptr inbounds nuw %class.anon.1, ptr %4, i32 0, i32 4
  %46 = getelementptr inbounds nuw %class.anon, ptr %5, i32 0, i32 5
  %47 = load ptr, ptr %46, align 8, !tbaa !22
  store ptr %47, ptr %45, align 8, !tbaa !14
  %48 = getelementptr inbounds nuw %class.anon.1, ptr %4, i32 0, i32 5
  %49 = getelementptr inbounds nuw %class.anon, ptr %5, i32 0, i32 6
  %50 = load ptr, ptr %49, align 8, !tbaa !23
  store ptr %50, ptr %48, align 8, !tbaa !14
  call void @"_ZZZN6open3d4core9MatmulCPUEPvS1_S1_lllNS0_5DtypeEENK3$_0clEvENKUlvE0_clEv"(ptr noundef nonnull align 8 dereferenceable(48) %4)
  call void @llvm.lifetime.end.p0(i64 48, ptr %4) #15
  br label %52

51:                                               ; preds = %28
  call void @_ZN6open3d7utility6Logger9LogError_IJEEEvPKciS4_S4_DpOT_(ptr noundef @.str, i32 noundef 27, ptr noundef @"__PRETTY_FUNCTION__._ZZN6open3d4core9MatmulCPUEPvS1_S1_lllNS0_5DtypeEENK3$_0clEv", ptr noundef @.str.1) #16
  unreachable

52:                                               ; preds = %32, %9
  ret void
}

; Function Attrs: mustprogress ssp uwtable
define hidden void @_ZN6open3d4core9MatmulCPUEPvS1_S1_lllNS0_5DtypeE(ptr noundef %0, ptr noundef %1, ptr noundef %2, i64 noundef %3, i64 noundef %4, i64 noundef %5, ptr noundef byval(%"class.open3d::core::Dtype") align 8 %6) #0 {
  %8 = alloca ptr, align 8
  %9 = alloca ptr, align 8
  %10 = alloca ptr, align 8
  %11 = alloca i64, align 8
  %12 = alloca i64, align 8
  %13 = alloca i64, align 8
  %14 = alloca %class.anon, align 8
  store ptr %0, ptr %8, align 8, !tbaa !4
  store ptr %1, ptr %9, align 8, !tbaa !4
  store ptr %2, ptr %10, align 8, !tbaa !4
  store i64 %3, ptr %11, align 8, !tbaa !8
  store i64 %4, ptr %12, align 8, !tbaa !8
  store i64 %5, ptr %13, align 8, !tbaa !8
  call void @llvm.lifetime.start.p0(i64 56, ptr %14) #15
  %15 = getelementptr inbounds nuw %class.anon, ptr %14, i32 0, i32 0
  store ptr %6, ptr %15, align 8, !tbaa !10
  %16 = getelementptr inbounds nuw %class.anon, ptr %14, i32 0, i32 1
  store ptr %11, ptr %16, align 8, !tbaa !12
  %17 = getelementptr inbounds nuw %class.anon, ptr %14, i32 0, i32 2
  store ptr %13, ptr %17, align 8, !tbaa !12
  %18 = getelementptr inbounds nuw %class.anon, ptr %14, i32 0, i32 3
  store ptr %12, ptr %18, align 8, !tbaa !12
  %19 = getelementptr inbounds nuw %class.anon, ptr %14, i32 0, i32 4
  store ptr %8, ptr %19, align 8, !tbaa !14
  %20 = getelementptr inbounds nuw %class.anon, ptr %14, i32 0, i32 5
  store ptr %9, ptr %20, align 8, !tbaa !14
  %21 = getelementptr inbounds nuw %class.anon, ptr %14, i32 0, i32 6
  store ptr %10, ptr %21, align 8, !tbaa !14
  call void @"_ZZN6open3d4core9MatmulCPUEPvS1_S1_lllNS0_5DtypeEENK3$_0clEv"(ptr noundef nonnull align 8 dereferenceable(56) %14)
  call void @llvm.lifetime.end.p0(i64 56, ptr %14) #15
  ret void
}