; Function Attrs: mustprogress ssp uwtable
define hidden void @_ZN6open3d4core9MatmulCPUEPvS1_S1_lllNS0_5DtypeE(ptr noundef %0, ptr noundef %1, ptr noundef %2, i64 noundef %3, i64 noundef %4, i64 noundef %5, ptr noundef nonnull byval(%"class.open3d::core::Dtype") align 8 %6) local_unnamed_addr #0 {
  %8 = call noundef zeroext i1 @_ZNK6open3d4core5DtypeeqERKS1_(ptr noundef nonnull align 8 dereferenceable(32) %6, ptr noundef nonnull align 8 dereferenceable(32) @_ZN6open3d4core7Float32E)
  br i1 %8, label %9, label %10

9:                                                ; preds = %7
  call void @cblas_sgemm(i32 noundef 102, i32 noundef 111, i32 noundef 111, i64 noundef %3, i64 noundef %5, i64 noundef %4, float noundef 1.000000e+00, ptr noundef %0, i64 noundef %3, ptr noundef %1, i64 noundef %4, float noundef 0.000000e+00, ptr noundef %2, i64 noundef %3) #11
  br label %"_ZZN6open3d4core9MatmulCPUEPvS1_S1_lllNS0_5DtypeEENK3$_0clEv.exit"

10:                                               ; preds = %7
  %11 = call noundef zeroext i1 @_ZNK6open3d4core5DtypeeqERKS1_(ptr noundef nonnull align 8 dereferenceable(32) %6, ptr noundef nonnull align 8 dereferenceable(32) @_ZN6open3d4core7Float64E)
  br i1 %11, label %12, label %13

12:                                               ; preds = %10
  call void @cblas_dgemm(i32 noundef 102, i32 noundef 111, i32 noundef 111, i64 noundef %3, i64 noundef %5, i64 noundef %4, double noundef 1.000000e+00, ptr noundef %0, i64 noundef %3, ptr noundef %1, i64 noundef %4, double noundef 0.000000e+00, ptr noundef %2, i64 noundef %3) #11
  br label %"_ZZN6open3d4core9MatmulCPUEPvS1_S1_lllNS0_5DtypeEENK3$_0clEv.exit"

13:                                               ; preds = %10
  call void @_ZN6open3d7utility6Logger9LogError_IJEEEvPKciS4_S4_DpOT_(ptr noundef nonnull @.str, i32 noundef 27, ptr noundef nonnull @"__PRETTY_FUNCTION__._ZZN6open3d4core9MatmulCPUEPvS1_S1_lllNS0_5DtypeEENK3$_0clEv", ptr noundef nonnull @.str.1) #12
  unreachable

"_ZZN6open3d4core9MatmulCPUEPvS1_S1_lllNS0_5DtypeEENK3$_0clEv.exit": ; preds = %9, %12
  ret void
}